target datalayout = "e-m:e-p270:32:32-p271:32:32-p272:64:64-i64:64-i128:128-f80:128-n8:16:32:64-S128"
target triple = "x86_64-pc-linux-gnu"

%struct.ParallelApplyWorkerInfo = type { ptr, ptr, ptr, i8, i8, ptr }
%struct.ParallelApplyWorkerShared = type { i8, i32, i32, i16, i32, %struct.pg_atomic_uint32, i64, i32, %struct.FileSet }
%struct.pg_atomic_uint32 = type { i32 }
%struct.FileSet = type { i32, i32, i32, [8 x i32] }
%struct.LogicalRepWorker = type { i32, i64, i8, i16, ptr, i32, i32, i32, i32, i8, i64, i8, ptr, i32, i8, i64, i64, i64, i64, i64 }
%struct.List = type { i32, i32, i32, ptr, [0 x %union.ListCell] }
%union.ListCell = type { ptr }

@ParallelApplyTxnHash = internal global ptr null, align 8
@.str.1 = private unnamed_addr constant [21 x i8] c"hash table corrupted\00", align 1
@.str.2 = private unnamed_addr constant [22 x i8] c"applyparallelworker.c\00", align 1
@ParallelApplyWorkerPool = internal global ptr null, align 8
@MyLogicalRepWorker = external global ptr, align 8
@InterruptPending = external global i32, align 4
@MyLatch = external global ptr, align 8
@.str.6 = private unnamed_addr constant [65 x i8] c"lost connection to the logical replication parallel apply worker\00", align 1
@__func__.pa_wait_for_xact_finish = private unnamed_addr constant [24 x i8] c"pa_wait_for_xact_finish\00", align 1
@__func__.pa_get_xact_state = private unnamed_addr constant [18 x i8] c"pa_get_xact_state\00", align 1
@__func__.pa_free_worker = private unnamed_addr constant [15 x i8] c"pa_free_worker\00", align 1
@max_parallel_apply_workers_per_subscription = external global i32, align 4

; Function Attrs: inlinehint nounwind uwtable
define internal i32 @tas(ptr noundef %0) #5 {
  %2 = alloca ptr, align 8
  %3 = alloca i8, align 1
  store ptr %0, ptr %2, align 8
  call void @llvm.lifetime.start.p0(i64 1, ptr %3) #9
  store i8 1, ptr %3, align 1
  %4 = load i8, ptr %3, align 1
  %5 = load ptr, ptr %2, align 8
  %6 = call i8 asm sideeffect "\09lock\09\09\09\0A\09xchgb\09$0,$1\09\0A", "=q,=*m,0,*m,~{memory},~{cc},~{dirflag},~{fpsr},~{flags}"(ptr elementtype(i8) %5, i8 %4, ptr elementtype(i8) %5) #9, !srcloc !10
  store i8 %6, ptr %3, align 1
  %7 = load i8, ptr %3, align 1
  %8 = zext i8 %7 to i32
  call void @llvm.lifetime.end.p0(i64 1, ptr %3) #9
  ret i32 %8
}

; Function Attrs: inlinehint nounwind uwtable
define internal i32 @list_length(ptr noundef %0) #5 {
  %2 = alloca ptr, align 8
  store ptr %0, ptr %2, align 8
  %3 = load ptr, ptr %2, align 8
  %4 = icmp ne ptr %3, null
  br i1 %4, label %5, label %9

5:                                                ; preds = %1
  %6 = load ptr, ptr %2, align 8
  %7 = getelementptr inbounds nuw %struct.List, ptr %6, i32 0, i32 1
  %8 = load i32, ptr %7, align 4
  br label %10

9:                                                ; preds = %1
  br label %10

10:                                               ; preds = %9, %5
  %11 = phi i32 [ %8, %5 ], [ 0, %9 ]
  ret i32 %11
}

; Function Attrs: nounwind uwtable
define internal i32 @pa_get_xact_state(ptr noundef %0) #0 {
  %2 = alloca ptr, align 8
  %3 = alloca i32, align 4
  store ptr %0, ptr %2, align 8
  call void @llvm.lifetime.start.p0(i64 4, ptr %3) #9
  %4 = load ptr, ptr %2, align 8
  %5 = getelementptr inbounds nuw %struct.ParallelApplyWorkerShared, ptr %4, i32 0, i32 0
  %6 = call i32 @tas(ptr noundef %5)
  %7 = icmp ne i32 %6, 0
  br i1 %7, label %8, label %12

8:                                                ; preds = %1
  %9 = load ptr, ptr %2, align 8
  %10 = getelementptr inbounds nuw %struct.ParallelApplyWorkerShared, ptr %9, i32 0, i32 0
  %11 = call i32 @s_lock(ptr noundef %10, ptr noundef @.str.2, i32 noundef 1323, ptr noundef @__func__.pa_get_xact_state)
  br label %13

12:                                               ; preds = %1
  br label %13

13:                                               ; preds = %12, %8
  %14 = load ptr, ptr %2, align 8
  %15 = getelementptr inbounds nuw %struct.ParallelApplyWorkerShared, ptr %14, i32 0, i32 2
  %16 = load i32, ptr %15, align 8
  store i32 %16, ptr %3, align 4
  br label %17

17:                                               ; preds = %13
  call void asm sideeffect "", "~{memory},~{dirflag},~{fpsr},~{flags}"() #9, !srcloc !19
  %18 = load ptr, ptr %2, align 8
  %19 = getelementptr inbounds nuw %struct.ParallelApplyWorkerShared, ptr %18, i32 0, i32 0
  store i8 0, ptr %19, align 8
  br label %20

20:                                               ; preds = %17
  br label %21

21:                                               ; preds = %20
  %22 = load i32, ptr %3, align 4
  call void @llvm.lifetime.end.p0(i64 4, ptr %3) #9
  ret i32 %22
}

; Function Attrs: nounwind uwtable
define dso_local void @pa_unlock_transaction(i32 noundef %0, i32 noundef %1) #0 {
  %3 = alloca i32, align 4
  %4 = alloca i32, align 4
  store i32 %0, ptr %3, align 4
  store i32 %1, ptr %4, align 4
  %5 = load ptr, ptr @MyLogicalRepWorker, align 8
  %6 = getelementptr inbounds nuw %struct.LogicalRepWorker, ptr %5, i32 0, i32 7
  %7 = load i32, ptr %6, align 8
  %8 = load i32, ptr %3, align 4
  %9 = load i32, ptr %4, align 4
  call void @UnlockApplyTransactionForSession(i32 noundef %7, i32 noundef %8, i16 noundef zeroext 1, i32 noundef %9)
  ret void
}

; Function Attrs: nounwind uwtable
define dso_local void @pa_lock_transaction(i32 noundef %0, i32 noundef %1) #0 {
  %3 = alloca i32, align 4
  %4 = alloca i32, align 4
  store i32 %0, ptr %3, align 4
  store i32 %1, ptr %4, align 4
  %5 = load ptr, ptr @MyLogicalRepWorker, align 8
  %6 = getelementptr inbounds nuw %struct.LogicalRepWorker, ptr %5, i32 0, i32 7
  %7 = load i32, ptr %6, align 8
  %8 = load i32, ptr %3, align 4
  %9 = load i32, ptr %4, align 4
  call void @LockApplyTransactionForSession(i32 noundef %7, i32 noundef %8, i16 noundef zeroext 1, i32 noundef %9)
  ret void
}

; Function Attrs: nounwind uwtable
define internal void @pa_wait_for_xact_state(ptr noundef %0, i32 noundef %1) #0 {
  %3 = alloca ptr, align 8
  %4 = alloca i32, align 4
  store ptr %0, ptr %3, align 8
  store i32 %1, ptr %4, align 4
  br label %5

5:                                                ; preds = %26, %2
  %6 = load ptr, ptr %3, align 8
  %7 = getelementptr inbounds nuw %struct.ParallelApplyWorkerInfo, ptr %6, i32 0, i32 5
  %8 = load ptr, ptr %7, align 8
  %9 = call i32 @pa_get_xact_state(ptr noundef %8)
  %10 = load i32, ptr %4, align 4
  %11 = icmp uge i32 %9, %10
  br i1 %11, label %12, label %13

12:                                               ; preds = %5
  br label %27

13:                                               ; preds = %5
  %14 = load ptr, ptr @MyLatch, align 8
  %15 = call i32 @WaitLatch(ptr noundef %14, i32 noundef 41, i64 noundef 10, i32 noundef 134217758)
  %16 = load ptr, ptr @MyLatch, align 8
  call void @ResetLatch(ptr noundef %16)
  br label %17

17:                                               ; preds = %13
  %18 = load volatile i32, ptr @InterruptPending, align 4
  %19 = icmp ne i32 %18, 0
  %20 = zext i1 %19 to i32
  %21 = sext i32 %20 to i64
  %22 = call i64 @llvm.expect.i64(i64 %21, i64 0)
  %23 = icmp ne i64 %22, 0
  br i1 %23, label %24, label %25

24:                                               ; preds = %17
  call void @ProcessInterrupts()
  br label %25

25:                                               ; preds = %24, %17
  br label %26

26:                                               ; preds = %25
  br label %5

27:                                               ; preds = %12
  ret void
}

; Function Attrs: nounwind uwtable
define internal void @pa_free_worker(ptr noundef %0) #0 {
  %2 = alloca ptr, align 8
  store ptr %0, ptr %2, align 8
  %3 = load ptr, ptr @ParallelApplyTxnHash, align 8
  %4 = load ptr, ptr %2, align 8
  %5 = getelementptr inbounds nuw %struct.ParallelApplyWorkerInfo, ptr %4, i32 0, i32 5
  %6 = load ptr, ptr %5, align 8
  %7 = getelementptr inbounds nuw %struct.ParallelApplyWorkerShared, ptr %6, i32 0, i32 1
  %8 = call ptr @hash_search(ptr noundef %3, ptr noundef %7, i32 noundef 2, ptr noundef null)
  %9 = icmp ne ptr %8, null
  br i1 %9, label %20, label %10

10:                                               ; preds = %1
  br label %11

11:                                               ; preds = %10
  br i1 true, label %12, label %14

12:                                               ; preds = %11
  %13 = call zeroext i1 @errstart_cold(i32 noundef 21, ptr noundef null) #10
  br i1 %13, label %16, label %18

14:                                               ; preds = %11
  %15 = call zeroext i1 @errstart(i32 noundef 21, ptr noundef null)
  br i1 %15, label %16, label %18

16:                                               ; preds = %14, %12
  %17 = call i32 (ptr, ...) @errmsg_internal(ptr noundef @.str.1)
  call void @errfinish(ptr noundef @.str.2, i32 noundef 563, ptr noundef @__func__.pa_free_worker)
  br label %18

18:                                               ; preds = %16, %14, %12
  unreachable

19:                                               ; No predecessors!
  br label %20

20:                                               ; preds = %19, %1
  %21 = load ptr, ptr %2, align 8
  %22 = getelementptr inbounds nuw %struct.ParallelApplyWorkerInfo, ptr %21, i32 0, i32 3
  %23 = load i8, ptr %22, align 8, !range !6, !noundef !7
  %24 = trunc i8 %23 to i1
  br i1 %24, label %31, label %25

25:                                               ; preds = %20
  %26 = load ptr, ptr @ParallelApplyWorkerPool, align 8
  %27 = call i32 @list_length(ptr noundef %26)
  %28 = load i32, ptr @max_parallel_apply_workers_per_subscription, align 4
  %29 = sdiv i32 %28, 2
  %30 = icmp sgt i32 %27, %29
  br i1 %30, label %31, label %34

31:                                               ; preds = %25, %20
  %32 = load ptr, ptr %2, align 8
  call void @logicalrep_pa_worker_stop(ptr noundef %32)
  %33 = load ptr, ptr %2, align 8
  call void @pa_free_worker_info(ptr noundef %33)
  br label %39

34:                                               ; preds = %25
  %35 = load ptr, ptr %2, align 8
  %36 = getelementptr inbounds nuw %struct.ParallelApplyWorkerInfo, ptr %35, i32 0, i32 4
  store i8 0, ptr %36, align 1
  %37 = load ptr, ptr %2, align 8
  %38 = getelementptr inbounds nuw %struct.ParallelApplyWorkerInfo, ptr %37, i32 0, i32 3
  store i8 0, ptr %38, align 8
  br label %39

39:                                               ; preds = %34, %31
  ret void
}

; Function Attrs: nounwind uwtable
define internal void @pa_wait_for_xact_finish(ptr noundef %0) #0 {
  %2 = alloca ptr, align 8
  store ptr %0, ptr %2, align 8
  %3 = load ptr, ptr %2, align 8
  call void @pa_wait_for_xact_state(ptr noundef %3, i32 noundef 1)
  %4 = load ptr, ptr %2, align 8
  %5 = getelementptr inbounds nuw %struct.ParallelApplyWorkerInfo, ptr %4, i32 0, i32 5
  %6 = load ptr, ptr %5, align 8
  %7 = getelementptr inbounds nuw %struct.ParallelApplyWorkerShared, ptr %6, i32 0, i32 1
  %8 = load i32, ptr %7, align 4
  call void @pa_lock_transaction(i32 noundef %8, i32 noundef 1)
  %9 = load ptr, ptr %2, align 8
  %10 = getelementptr inbounds nuw %struct.ParallelApplyWorkerInfo, ptr %9, i32 0, i32 5
  %11 = load ptr, ptr %10, align 8
  %12 = getelementptr inbounds nuw %struct.ParallelApplyWorkerShared, ptr %11, i32 0, i32 1
  %13 = load i32, ptr %12, align 4
  call void @pa_unlock_transaction(i32 noundef %13, i32 noundef 1)
  %14 = load ptr, ptr %2, align 8
  %15 = getelementptr inbounds nuw %struct.ParallelApplyWorkerInfo, ptr %14, i32 0, i32 5
  %16 = load ptr, ptr %15, align 8
  %17 = call i32 @pa_get_xact_state(ptr noundef %16)
  %18 = icmp ne i32 %17, 2
  br i1 %18, label %19, label %30

19:                                               ; preds = %1
  br label %20

20:                                               ; preds = %19
  br i1 true, label %21, label %23

21:                                               ; preds = %20
  %22 = call zeroext i1 @errstart_cold(i32 noundef 21, ptr noundef null) #10
  br i1 %22, label %25, label %28

23:                                               ; preds = %20
  %24 = call zeroext i1 @errstart(i32 noundef 21, ptr noundef null)
  br i1 %24, label %25, label %28

25:                                               ; preds = %23, %21
  %26 = call i32 @errcode(i32 noundef 325)
  %27 = call i32 (ptr, ...) @errmsg(ptr noundef @.str.6)
  call void @errfinish(ptr noundef @.str.2, i32 noundef 1300, ptr noundef @__func__.pa_wait_for_xact_finish)
  br label %28

28:                                               ; preds = %25, %23, %21
  unreachable

29:                                               ; No predecessors!
  br label %30

30:                                               ; preds = %29, %1
  ret void
}

; Function Attrs: nounwind uwtable
define dso_local void @pa_unlock_stream(i32 noundef %0, i32 noundef %1) #0 {
  %3 = alloca i32, align 4
  %4 = alloca i32, align 4
  store i32 %0, ptr %3, align 4
  store i32 %1, ptr %4, align 4
  %5 = load ptr, ptr @MyLogicalRepWorker, align 8
  %6 = getelementptr inbounds nuw %struct.LogicalRepWorker, ptr %5, i32 0, i32 7
  %7 = load i32, ptr %6, align 8
  %8 = load i32, ptr %3, align 4
  %9 = load i32, ptr %4, align 4
  call void @UnlockApplyTransactionForSession(i32 noundef %7, i32 noundef %8, i16 noundef zeroext 0, i32 noundef %9)
  ret void
}

; Function Attrs: nounwind uwtable
define dso_local void @pa_xact_finish(ptr noundef %0, i64 noundef %1) #0 {
  %3 = alloca ptr, align 8
  %4 = alloca i64, align 8
  store ptr %0, ptr %3, align 8
  store i64 %1, ptr %4, align 8
  %5 = load ptr, ptr %3, align 8
  %6 = getelementptr inbounds nuw %struct.ParallelApplyWorkerInfo, ptr %5, i32 0, i32 5
  %7 = load ptr, ptr %6, align 8
  %8 = getelementptr inbounds nuw %struct.ParallelApplyWorkerShared, ptr %7, i32 0, i32 1
  %9 = load i32, ptr %8, align 4
  call void @pa_unlock_stream(i32 noundef %9, i32 noundef 8)
  %10 = load ptr, ptr %3, align 8
  call void @pa_wait_for_xact_finish(ptr noundef %10)
  %11 = load i64, ptr %4, align 8
  %12 = icmp eq i64 %11, 0
  br i1 %12, label %20, label %13

13:                                               ; preds = %2
  %14 = load i64, ptr %4, align 8
  %15 = load ptr, ptr %3, align 8
  %16 = getelementptr inbounds nuw %struct.ParallelApplyWorkerInfo, ptr %15, i32 0, i32 5
  %17 = load ptr, ptr %16, align 8
  %18 = getelementptr inbounds nuw %struct.ParallelApplyWorkerShared, ptr %17, i32 0, i32 6
  %19 = load i64, ptr %18, align 8
  call void @store_flush_position(i64 noundef %14, i64 noundef %19)
  br label %20

20:                                               ; preds = %13, %2
  %21 = load ptr, ptr %3, align 8
  call void @pa_free_worker(ptr noundef %21)
  ret void
}