; Function Attrs: nounwind uwtable
define dso_local void @pa_xact_finish(ptr noundef %0, i64 noundef %1) local_unnamed_addr #0 {
  %3 = getelementptr inbounds nuw i8, ptr %0, i64 32
  %4 = load ptr, ptr %3, align 8
  %5 = getelementptr inbounds nuw i8, ptr %4, i64 4
  %6 = load i32, ptr %5, align 4
  %7 = load ptr, ptr @MyLogicalRepWorker, align 8
  %8 = getelementptr inbounds nuw i8, ptr %7, i64 40
  %9 = load i32, ptr %8, align 8
  tail call void @UnlockApplyTransactionForSession(i32 noundef %9, i32 noundef %6, i16 noundef zeroext 0, i32 noundef 8) #10
  br label %10

10:                                               ; preds = %.backedge, %2
  %11 = load ptr, ptr %3, align 8
  %12 = tail call i8 asm sideeffect "\09lock\09\09\09\0A\09xchgb\09$0,$1\09\0A", "=q,=*m,0,*m,~{memory},~{cc},~{dirflag},~{fpsr},~{flags}"(ptr elementtype(i8) %11, i8 1, ptr elementtype(i8) %11) #10, !srcloc !7
  %.not.i.i.i = icmp eq i8 %12, 0
  br i1 %.not.i.i.i, label %pa_get_xact_state.exit.i.i, label %13

13:                                               ; preds = %10
  %14 = tail call i32 @s_lock(ptr noundef %11, ptr noundef nonnull @.str.2, i32 noundef 1323, ptr noundef nonnull @__func__.pa_get_xact_state) #10
  br label %pa_get_xact_state.exit.i.i

pa_get_xact_state.exit.i.i:                       ; preds = %13, %10
  %15 = getelementptr inbounds nuw i8, ptr %11, i64 8
  %16 = load i32, ptr %15, align 8
  tail call void asm sideeffect "", "~{memory},~{dirflag},~{fpsr},~{flags}"() #10, !srcloc !17
  store i8 0, ptr %11, align 8
  %.not.i.i = icmp eq i32 %16, 0
  br i1 %.not.i.i, label %17, label %pa_wait_for_xact_state.exit.i

17:                                               ; preds = %pa_get_xact_state.exit.i.i
  %18 = load ptr, ptr @MyLatch, align 8
  %19 = tail call i32 @WaitLatch(ptr noundef %18, i32 noundef 41, i64 noundef 10, i32 noundef 134217758) #10
  %20 = load ptr, ptr @MyLatch, align 8
  tail call void @ResetLatch(ptr noundef %20) #10
  %21 = load volatile i32, ptr @InterruptPending, align 4
  %.not1.i.i = icmp eq i32 %21, 0
  br i1 %.not1.i.i, label %.backedge, label %22, !prof !10

22:                                               ; preds = %17
  tail call void @ProcessInterrupts() #10
  br label %.backedge

.backedge:                                        ; preds = %22, %17
  br label %10

pa_wait_for_xact_state.exit.i:                    ; preds = %pa_get_xact_state.exit.i.i
  %23 = load ptr, ptr %3, align 8
  %24 = getelementptr inbounds nuw i8, ptr %23, i64 4
  %25 = load i32, ptr %24, align 4
  %26 = load ptr, ptr @MyLogicalRepWorker, align 8
  %27 = getelementptr inbounds nuw i8, ptr %26, i64 40
  %28 = load i32, ptr %27, align 8
  tail call void @LockApplyTransactionForSession(i32 noundef %28, i32 noundef %25, i16 noundef zeroext 1, i32 noundef 1) #10
  %29 = load ptr, ptr %3, align 8
  %30 = getelementptr inbounds nuw i8, ptr %29, i64 4
  %31 = load i32, ptr %30, align 4
  %32 = load ptr, ptr @MyLogicalRepWorker, align 8
  %33 = getelementptr inbounds nuw i8, ptr %32, i64 40
  %34 = load i32, ptr %33, align 8
  tail call void @UnlockApplyTransactionForSession(i32 noundef %34, i32 noundef %31, i16 noundef zeroext 1, i32 noundef 1) #10
  %35 = load ptr, ptr %3, align 8
  %36 = tail call i8 asm sideeffect "\09lock\09\09\09\0A\09xchgb\09$0,$1\09\0A", "=q,=*m,0,*m,~{memory},~{cc},~{dirflag},~{fpsr},~{flags}"(ptr elementtype(i8) %35, i8 1, ptr elementtype(i8) %35) #10, !srcloc !7
  %.not.i4.i = icmp eq i8 %36, 0
  br i1 %.not.i4.i, label %pa_get_xact_state.exit.i, label %37

37:                                               ; preds = %pa_wait_for_xact_state.exit.i
  %38 = tail call i32 @s_lock(ptr noundef %35, ptr noundef nonnull @.str.2, i32 noundef 1323, ptr noundef nonnull @__func__.pa_get_xact_state) #10
  br label %pa_get_xact_state.exit.i

pa_get_xact_state.exit.i:                         ; preds = %37, %pa_wait_for_xact_state.exit.i
  %39 = getelementptr inbounds nuw i8, ptr %35, i64 8
  %40 = load i32, ptr %39, align 8
  tail call void asm sideeffect "", "~{memory},~{dirflag},~{fpsr},~{flags}"() #10, !srcloc !17
  store i8 0, ptr %35, align 8
  %.not.i = icmp eq i32 %40, 2
  br i1 %.not.i, label %pa_wait_for_xact_finish.exit, label %41

41:                                               ; preds = %pa_get_xact_state.exit.i
  %42 = tail call zeroext i1 @errstart_cold(i32 noundef 21, ptr noundef null) #11
  tail call void @llvm.assume(i1 %42)
  %43 = tail call i32 @errcode(i32 noundef 325) #10
  %44 = tail call i32 (ptr, ...) @errmsg(ptr noundef nonnull @.str.6) #10
  tail call void @errfinish(ptr noundef nonnull @.str.2, i32 noundef 1300, ptr noundef nonnull @__func__.pa_wait_for_xact_finish) #10
  unreachable

pa_wait_for_xact_finish.exit:                     ; preds = %pa_get_xact_state.exit.i
  %45 = icmp eq i64 %1, 0
  br i1 %45, label %50, label %46

46:                                               ; preds = %pa_wait_for_xact_finish.exit
  %47 = load ptr, ptr %3, align 8
  %48 = getelementptr inbounds nuw i8, ptr %47, i64 24
  %49 = load i64, ptr %48, align 8
  tail call void @store_flush_position(i64 noundef %1, i64 noundef %49) #10
  br label %50

50:                                               ; preds = %46, %pa_wait_for_xact_finish.exit
  %51 = load ptr, ptr @ParallelApplyTxnHash, align 8
  %52 = load ptr, ptr %3, align 8
  %53 = getelementptr inbounds nuw i8, ptr %52, i64 4
  %54 = tail call ptr @hash_search(ptr noundef %51, ptr noundef nonnull %53, i32 noundef 2, ptr noundef null) #10
  %.not.i5 = icmp eq ptr %54, null
  br i1 %.not.i5, label %55, label %58

55:                                               ; preds = %50
  %56 = tail call zeroext i1 @errstart_cold(i32 noundef 21, ptr noundef null) #11
  tail call void @llvm.assume(i1 %56)
  %57 = tail call i32 (ptr, ...) @errmsg_internal(ptr noundef nonnull @.str.1) #10
  tail call void @errfinish(ptr noundef nonnull @.str.2, i32 noundef 563, ptr noundef nonnull @__func__.pa_free_worker) #10
  unreachable

58:                                               ; preds = %50
  %59 = getelementptr inbounds nuw i8, ptr %0, i64 24
  %60 = load i8, ptr %59, align 8, !range !4, !noundef !5
  %61 = trunc nuw i8 %60 to i1
  br i1 %61, label %71, label %62

62:                                               ; preds = %58
  %63 = load ptr, ptr @ParallelApplyWorkerPool, align 8
  %.not.i.i6 = icmp eq ptr %63, null
  br i1 %.not.i.i6, label %list_length.exit.i, label %64

64:                                               ; preds = %62
  %65 = getelementptr inbounds nuw i8, ptr %63, i64 4
  %66 = load i32, ptr %65, align 4
  br label %list_length.exit.i

list_length.exit.i:                               ; preds = %64, %62
  %67 = phi i32 [ %66, %64 ], [ 0, %62 ]
  %68 = load i32, ptr @max_parallel_apply_workers_per_subscription, align 4
  %69 = sdiv i32 %68, 2
  %70 = icmp sgt i32 %67, %69
  br i1 %70, label %71, label %72

71:                                               ; preds = %list_length.exit.i, %58
  tail call void @logicalrep_pa_worker_stop(ptr noundef nonnull %0) #10
  tail call fastcc void @pa_free_worker_info(ptr noundef nonnull %0)
  br label %pa_free_worker.exit

72:                                               ; preds = %list_length.exit.i
  %73 = getelementptr inbounds nuw i8, ptr %0, i64 25
  store i8 0, ptr %73, align 1
  store i8 0, ptr %59, align 8
  br label %pa_free_worker.exit

pa_free_worker.exit:                              ; preds = %71, %72
  ret void
}